; Function Attrs: nounwind uwtable
define i64 @duckdb_je_batcher_push_begin(ptr noundef %0, ptr noundef %1, i64 noundef %2) local_unnamed_addr #0 {
  %4 = load atomic i64, ptr %1 monotonic, align 8
  %5 = add i64 %4, %2
  %6 = getelementptr inbounds nuw i8, ptr %1, i64 8
  %7 = load i64, ptr %6, align 8, !tbaa !3
  %8 = icmp ugt i64 %5, %7
  br i1 %8, label %36, label %9

9:                                                ; preds = %3
  %10 = getelementptr inbounds nuw i8, ptr %1, i64 96
  %11 = tail call i32 @pthread_mutex_trylock(ptr noundef nonnull %10) #4
  %.not.i = icmp eq i32 %11, 0
  br i1 %.not.i, label %15, label %12

12:                                               ; preds = %9
  %13 = getelementptr inbounds nuw i8, ptr %1, i64 24
  tail call void @duckdb_je_malloc_mutex_lock_slow(ptr noundef nonnull %13) #4
  %14 = getelementptr inbounds nuw i8, ptr %1, i64 88
  store atomic i8 1, ptr %14 monotonic, align 1
  br label %15

15:                                               ; preds = %12, %9
  %16 = getelementptr inbounds nuw i8, ptr %1, i64 80
  %17 = load i64, ptr %16, align 8, !tbaa !11
  %18 = add i64 %17, 1
  store i64 %18, ptr %16, align 8, !tbaa !11
  %19 = getelementptr inbounds nuw i8, ptr %1, i64 72
  %20 = load ptr, ptr %19, align 8, !tbaa !17
  %.not.i.i = icmp eq ptr %20, %0
  br i1 %.not.i.i, label %malloc_mutex_lock.exit, label %21

21:                                               ; preds = %15
  store ptr %0, ptr %19, align 8, !tbaa !17
  %22 = getelementptr inbounds nuw i8, ptr %1, i64 64
  %23 = load i64, ptr %22, align 8, !tbaa !18
  %24 = add i64 %23, 1
  store i64 %24, ptr %22, align 8, !tbaa !18
  br label %malloc_mutex_lock.exit

malloc_mutex_lock.exit:                           ; preds = %15, %21
  %25 = load atomic i64, ptr %1 monotonic, align 8
  %26 = add i64 %25, %2
  %27 = load i64, ptr %6, align 8, !tbaa !3
  %28 = icmp ugt i64 %26, %27
  br i1 %28, label %29, label %32

29:                                               ; preds = %malloc_mutex_lock.exit
  %30 = getelementptr inbounds nuw i8, ptr %1, i64 88
  store atomic i8 0, ptr %30 monotonic, align 1
  %31 = tail call i32 @pthread_mutex_unlock(ptr noundef nonnull %10) #4
  br label %36

32:                                               ; preds = %malloc_mutex_lock.exit
  store atomic i64 %26, ptr %1 monotonic, align 8
  %33 = getelementptr inbounds nuw i8, ptr %1, i64 16
  %34 = load i64, ptr %33, align 8, !tbaa !10
  %35 = add i64 %34, 1
  store i64 %35, ptr %33, align 8, !tbaa !10
  br label %36

36:                                               ; preds = %29, %32, %3
  %.0 = phi i64 [ -1, %3 ], [ -1, %29 ], [ %25, %32 ]
  ret i64 %.0
}